; Function Attrs: nounwind uwtable
define ptr @glfwGetCurrentContext() local_unnamed_addr #0 {
  %1 = load i32, ptr @_glfw, align 8, !tbaa !78
  %.not = icmp eq i32 %1, 0
  br i1 %.not, label %2, label %3

2:                                                ; preds = %0
  tail call void (i32, ptr, ...) @_glfwInputError(i32 noundef 65537, ptr noundef null) #7
  br label %5

3:                                                ; preds = %0
  %4 = tail call ptr @_glfwPlatformGetTls(ptr noundef nonnull getelementptr inbounds nuw (i8, ptr @_glfw, i64 133412)) #7
  br label %5

5:                                                ; preds = %3, %2
  %.0 = phi ptr [ %4, %3 ], [ null, %2 ]
  ret ptr %.0
}